target datalayout = "e-m:e-p270:32:32-p271:32:32-p272:64:64-i64:64-i128:128-f80:128-n8:16:32:64-S128"
target triple = "x86_64-pc-linux-gnu"

%struct.H5VL_t = type { ptr, i64, i64 }
%struct.H5VL_wrap_ctx_t = type { i32, ptr, ptr }

@.str.2 = private unnamed_addr constant [101 x i8] c"generated/home/dtcxzyw/WorkSpace/Projects/compilers/llvm-opt-benchmark/bench/hdf5/hdf5/src/H5VLint.c\00", align 1
@H5E_VOL_g = external global i64, align 8
@H5E_BADVALUE_g = external global i64, align 8
@H5E_CANTGET_g = external global i64, align 8
@H5E_CANTREGISTER_g = external global i64, align 8
@H5E_BADTYPE_g = external global i64, align 8
@H5E_CANTCREATE_g = external global i64, align 8
@.str.83 = private unnamed_addr constant [34 x i8] c"can't get VOL object wrap context\00", align 1
@__func__.H5VL_wrap_register = private unnamed_addr constant [19 x i8] c"H5VL_wrap_register\00", align 1
@.str.90 = private unnamed_addr constant [52 x i8] c"VOL object wrap context or its connector is NULL???\00", align 1
@.str.91 = private unnamed_addr constant [35 x i8] c"can't wrap an uncommitted datatype\00", align 1
@.str.92 = private unnamed_addr constant [26 x i8] c"can't wrap library object\00", align 1
@.str.93 = private unnamed_addr constant [35 x i8] c"unable to get an ID for the object\00", align 1
@__func__.H5VL__wrap_obj = private unnamed_addr constant [15 x i8] c"H5VL__wrap_obj\00", align 1
@.str.110 = private unnamed_addr constant [18 x i8] c"can't wrap object\00", align 1

; Function Attrs: nounwind uwtable
define internal ptr @H5VL__wrap_obj(ptr noundef %0, i32 noundef %1) #0 {
  %3 = alloca ptr, align 8
  %4 = alloca i32, align 4
  %5 = alloca ptr, align 8
  %6 = alloca ptr, align 8
  %7 = alloca i8, align 1
  store ptr %0, ptr %3, align 8
  store i32 %1, ptr %4, align 4
  store ptr null, ptr %5, align 8
  store ptr null, ptr %6, align 8
  store i8 0, ptr %7, align 1
  %8 = call i32 @H5CX_get_vol_wrap_ctx(ptr noundef %5)
  %9 = icmp slt i32 %8, 0
  br i1 %9, label %10, label %25

10:                                               ; preds = %2
  br label %11

11:                                               ; preds = %10
  br label %12

12:                                               ; preds = %11
  br label %13

13:                                               ; preds = %12
  %14 = load i64, ptr @H5E_VOL_g, align 8
  %15 = load i64, ptr @H5E_CANTGET_g, align 8
  %16 = call i32 (ptr, ptr, i32, i64, i64, ptr, ...) @H5E_printf_stack(ptr noundef @.str.2, ptr noundef @__func__.H5VL__wrap_obj, i32 noundef 499, i64 noundef %14, i64 noundef %15, ptr noundef @.str.83)
  br label %17

17:                                               ; preds = %13
  store i8 1, ptr %7, align 1
  %18 = load i8, ptr %7, align 1
  %19 = trunc i8 %18 to i1
  %20 = zext i1 %19 to i8
  store i8 %20, ptr %7, align 1
  br label %21

21:                                               ; preds = %17
  br label %22

22:                                               ; preds = %21
  store ptr null, ptr %6, align 8
  br label %60

23:                                               ; No predecessors!
  br label %24

24:                                               ; preds = %23
  br label %25

25:                                               ; preds = %24, %2
  %26 = load ptr, ptr %5, align 8
  %27 = icmp ne ptr %26, null
  br i1 %27, label %28, label %57

28:                                               ; preds = %25
  %29 = load ptr, ptr %5, align 8
  %30 = getelementptr inbounds %struct.H5VL_wrap_ctx_t, ptr %29, i32 0, i32 1
  %31 = load ptr, ptr %30, align 8
  %32 = getelementptr inbounds %struct.H5VL_t, ptr %31, i32 0, i32 0
  %33 = load ptr, ptr %32, align 8
  %34 = load ptr, ptr %5, align 8
  %35 = getelementptr inbounds %struct.H5VL_wrap_ctx_t, ptr %34, i32 0, i32 2
  %36 = load ptr, ptr %35, align 8
  %37 = load ptr, ptr %3, align 8
  %38 = load i32, ptr %4, align 4
  %39 = call ptr @H5VL_wrap_object(ptr noundef %33, ptr noundef %36, ptr noundef %37, i32 noundef %38)
  store ptr %39, ptr %6, align 8
  %40 = icmp eq ptr null, %39
  br i1 %40, label %41, label %56

41:                                               ; preds = %28
  br label %42

42:                                               ; preds = %41
  br label %43

43:                                               ; preds = %42
  br label %44

44:                                               ; preds = %43
  %45 = load i64, ptr @H5E_VOL_g, align 8
  %46 = load i64, ptr @H5E_CANTGET_g, align 8
  %47 = call i32 (ptr, ptr, i32, i64, i64, ptr, ...) @H5E_printf_stack(ptr noundef @.str.2, ptr noundef @__func__.H5VL__wrap_obj, i32 noundef 506, i64 noundef %45, i64 noundef %46, ptr noundef @.str.110)
  br label %48

48:                                               ; preds = %44
  store i8 1, ptr %7, align 1
  %49 = load i8, ptr %7, align 1
  %50 = trunc i8 %49 to i1
  %51 = zext i1 %50 to i8
  store i8 %51, ptr %7, align 1
  br label %52

52:                                               ; preds = %48
  br label %53

53:                                               ; preds = %52
  store ptr null, ptr %6, align 8
  br label %60

54:                                               ; No predecessors!
  br label %55

55:                                               ; preds = %54
  br label %56

56:                                               ; preds = %55, %28
  br label %59

57:                                               ; preds = %25
  %58 = load ptr, ptr %3, align 8
  store ptr %58, ptr %6, align 8
  br label %59

59:                                               ; preds = %57, %56
  br label %60

60:                                               ; preds = %59, %53, %22
  %61 = load ptr, ptr %6, align 8
  ret ptr %61
}

; Function Attrs: nounwind uwtable
define i64 @H5VL_wrap_register(i32 noundef %0, ptr noundef %1, i1 noundef zeroext %2) #0 {
  %4 = alloca i32, align 4
  %5 = alloca ptr, align 8
  %6 = alloca i8, align 1
  %7 = alloca ptr, align 8
  %8 = alloca ptr, align 8
  %9 = alloca i64, align 8
  %10 = alloca i8, align 1
  store i32 %0, ptr %4, align 4
  store ptr %1, ptr %5, align 8
  %11 = zext i1 %2 to i8
  store i8 %11, ptr %6, align 1
  store ptr null, ptr %7, align 8
  store i64 -1, ptr %9, align 8
  store i8 0, ptr %10, align 1
  %12 = call i32 @H5CX_get_vol_wrap_ctx(ptr noundef %7)
  %13 = icmp slt i32 %12, 0
  br i1 %13, label %14, label %29

14:                                               ; preds = %3
  br label %15

15:                                               ; preds = %14
  br label %16

16:                                               ; preds = %15
  br label %17

17:                                               ; preds = %16
  %18 = load i64, ptr @H5E_VOL_g, align 8
  %19 = load i64, ptr @H5E_CANTGET_g, align 8
  %20 = call i32 (ptr, ptr, i32, i64, i64, ptr, ...) @H5E_printf_stack(ptr noundef @.str.2, ptr noundef @__func__.H5VL_wrap_register, i32 noundef 2403, i64 noundef %18, i64 noundef %19, ptr noundef @.str.83)
  br label %21

21:                                               ; preds = %17
  store i8 1, ptr %10, align 1
  %22 = load i8, ptr %10, align 1
  %23 = trunc i8 %22 to i1
  %24 = zext i1 %23 to i8
  store i8 %24, ptr %10, align 1
  br label %25

25:                                               ; preds = %21
  br label %26

26:                                               ; preds = %25
  store i64 -1, ptr %9, align 8
  br label %133

27:                                               ; No predecessors!
  br label %28

28:                                               ; preds = %27
  br label %29

29:                                               ; preds = %28, %3
  %30 = load ptr, ptr %7, align 8
  %31 = icmp eq ptr null, %30
  br i1 %31, label %37, label %32

32:                                               ; preds = %29
  %33 = load ptr, ptr %7, align 8
  %34 = getelementptr inbounds %struct.H5VL_wrap_ctx_t, ptr %33, i32 0, i32 1
  %35 = load ptr, ptr %34, align 8
  %36 = icmp eq ptr null, %35
  br i1 %36, label %37, label %52

37:                                               ; preds = %32, %29
  br label %38

38:                                               ; preds = %37
  br label %39

39:                                               ; preds = %38
  br label %40

40:                                               ; preds = %39
  %41 = load i64, ptr @H5E_VOL_g, align 8
  %42 = load i64, ptr @H5E_BADVALUE_g, align 8
  %43 = call i32 (ptr, ptr, i32, i64, i64, ptr, ...) @H5E_printf_stack(ptr noundef @.str.2, ptr noundef @__func__.H5VL_wrap_register, i32 noundef 2406, i64 noundef %41, i64 noundef %42, ptr noundef @.str.90)
  br label %44

44:                                               ; preds = %40
  store i8 1, ptr %10, align 1
  %45 = load i8, ptr %10, align 1
  %46 = trunc i8 %45 to i1
  %47 = zext i1 %46 to i8
  store i8 %47, ptr %10, align 1
  br label %48

48:                                               ; preds = %44
  br label %49

49:                                               ; preds = %48
  store i64 -1, ptr %9, align 8
  br label %133

50:                                               ; No predecessors!
  br label %51

51:                                               ; preds = %50
  br label %52

52:                                               ; preds = %51, %32
  %53 = load i32, ptr %4, align 4
  %54 = icmp eq i32 %53, 3
  br i1 %54, label %55, label %85

55:                                               ; preds = %52
  %56 = load ptr, ptr %7, align 8
  %57 = getelementptr inbounds %struct.H5VL_wrap_ctx_t, ptr %56, i32 0, i32 1
  %58 = load ptr, ptr %57, align 8
  %59 = getelementptr inbounds %struct.H5VL_t, ptr %58, i32 0, i32 2
  %60 = load i64, ptr %59, align 8
  %61 = call i64 @H5VL_native_register()
  %62 = icmp eq i64 %60, %61
  br i1 %62, label %63, label %84

63:                                               ; preds = %55
  %64 = load ptr, ptr %5, align 8
  %65 = call zeroext i1 @H5T_already_vol_managed(ptr noundef %64)
  %66 = zext i1 %65 to i32
  %67 = icmp eq i32 1, %66
  br i1 %67, label %68, label %83

68:                                               ; preds = %63
  br label %69

69:                                               ; preds = %68
  br label %70

70:                                               ; preds = %69
  br label %71

71:                                               ; preds = %70
  %72 = load i64, ptr @H5E_VOL_g, align 8
  %73 = load i64, ptr @H5E_BADTYPE_g, align 8
  %74 = call i32 (ptr, ptr, i32, i64, i64, ptr, ...) @H5E_printf_stack(ptr noundef @.str.2, ptr noundef @__func__.H5VL_wrap_register, i32 noundef 2414, i64 noundef %72, i64 noundef %73, ptr noundef @.str.91)
  br label %75

75:                                               ; preds = %71
  store i8 1, ptr %10, align 1
  %76 = load i8, ptr %10, align 1
  %77 = trunc i8 %76 to i1
  %78 = zext i1 %77 to i8
  store i8 %78, ptr %10, align 1
  br label %79

79:                                               ; preds = %75
  br label %80

80:                                               ; preds = %79
  store i64 -1, ptr %9, align 8
  br label %133

81:                                               ; No predecessors!
  br label %82

82:                                               ; preds = %81
  br label %83

83:                                               ; preds = %82, %63
  br label %84

84:                                               ; preds = %83, %55
  br label %85

85:                                               ; preds = %84, %52
  %86 = load ptr, ptr %5, align 8
  %87 = load i32, ptr %4, align 4
  %88 = call ptr @H5VL__wrap_obj(ptr noundef %86, i32 noundef %87)
  store ptr %88, ptr %8, align 8
  %89 = icmp eq ptr null, %88
  br i1 %89, label %90, label %105

90:                                               ; preds = %85
  br label %91

91:                                               ; preds = %90
  br label %92

92:                                               ; preds = %91
  br label %93

93:                                               ; preds = %92
  %94 = load i64, ptr @H5E_VOL_g, align 8
  %95 = load i64, ptr @H5E_CANTCREATE_g, align 8
  %96 = call i32 (ptr, ptr, i32, i64, i64, ptr, ...) @H5E_printf_stack(ptr noundef @.str.2, ptr noundef @__func__.H5VL_wrap_register, i32 noundef 2418, i64 noundef %94, i64 noundef %95, ptr noundef @.str.92)
  br label %97

97:                                               ; preds = %93
  store i8 1, ptr %10, align 1
  %98 = load i8, ptr %10, align 1
  %99 = trunc i8 %98 to i1
  %100 = zext i1 %99 to i8
  store i8 %100, ptr %10, align 1
  br label %101

101:                                              ; preds = %97
  br label %102

102:                                              ; preds = %101
  store i64 -1, ptr %9, align 8
  br label %133

103:                                              ; No predecessors!
  br label %104

104:                                              ; preds = %103
  br label %105

105:                                              ; preds = %104, %85
  %106 = load i32, ptr %4, align 4
  %107 = load ptr, ptr %8, align 8
  %108 = load ptr, ptr %7, align 8
  %109 = getelementptr inbounds %struct.H5VL_wrap_ctx_t, ptr %108, i32 0, i32 1
  %110 = load ptr, ptr %109, align 8
  %111 = getelementptr inbounds %struct.H5VL_t, ptr %110, i32 0, i32 2
  %112 = load i64, ptr %111, align 8
  %113 = load i8, ptr %6, align 1
  %114 = trunc i8 %113 to i1
  %115 = call i64 @H5VL_register_using_vol_id(i32 noundef %106, ptr noundef %107, i64 noundef %112, i1 noundef zeroext %114)
  store i64 %115, ptr %9, align 8
  %116 = icmp slt i64 %115, 0
  br i1 %116, label %117, label %132

117:                                              ; preds = %105
  br label %118

118:                                              ; preds = %117
  br label %119

119:                                              ; preds = %118
  br label %120

120:                                              ; preds = %119
  %121 = load i64, ptr @H5E_VOL_g, align 8
  %122 = load i64, ptr @H5E_CANTREGISTER_g, align 8
  %123 = call i32 (ptr, ptr, i32, i64, i64, ptr, ...) @H5E_printf_stack(ptr noundef @.str.2, ptr noundef @__func__.H5VL_wrap_register, i32 noundef 2422, i64 noundef %121, i64 noundef %122, ptr noundef @.str.93)
  br label %124

124:                                              ; preds = %120
  store i8 1, ptr %10, align 1
  %125 = load i8, ptr %10, align 1
  %126 = trunc i8 %125 to i1
  %127 = zext i1 %126 to i8
  store i8 %127, ptr %10, align 1
  br label %128

128:                                              ; preds = %124
  br label %129

129:                                              ; preds = %128
  store i64 -1, ptr %9, align 8
  br label %133

130:                                              ; No predecessors!
  br label %131

131:                                              ; preds = %130
  br label %132

132:                                              ; preds = %131, %105
  br label %133

133:                                              ; preds = %132, %129, %102, %80, %49, %26
  %134 = load i64, ptr %9, align 8
  ret i64 %134
}