; Function Attrs: nounwind uwtable
define range(i64 -1, -9223372036854775808) i64 @H5VL_wrap_register(i32 noundef %0, ptr noundef %1, i1 noundef zeroext %2) local_unnamed_addr #0 {
  %4 = alloca ptr, align 8
  %5 = alloca ptr, align 8
  store ptr null, ptr %5, align 8
  %6 = call i32 @H5CX_get_vol_wrap_ctx(ptr noundef nonnull %5) #10
  %7 = icmp slt i32 %6, 0
  br i1 %7, label %8, label %12

8:                                                ; preds = %3
  %9 = load i64, ptr @H5E_VOL_g, align 8
  %10 = load i64, ptr @H5E_CANTGET_g, align 8
  %11 = call i32 (ptr, ptr, i32, i64, i64, ptr, ...) @H5E_printf_stack(ptr noundef nonnull @.str.2, ptr noundef nonnull @__func__.H5VL_wrap_register, i32 noundef 2403, i64 noundef %9, i64 noundef %10, ptr noundef nonnull @.str.83) #10
  br label %74

12:                                               ; preds = %3
  %13 = load ptr, ptr %5, align 8
  %14 = icmp eq ptr %13, null
  br i1 %14, label %19, label %15

15:                                               ; preds = %12
  %16 = getelementptr inbounds i8, ptr %13, i64 8
  %17 = load ptr, ptr %16, align 8
  %18 = icmp eq ptr %17, null
  br i1 %18, label %19, label %23

19:                                               ; preds = %12, %15
  %20 = load i64, ptr @H5E_VOL_g, align 8
  %21 = load i64, ptr @H5E_BADVALUE_g, align 8
  %22 = call i32 (ptr, ptr, i32, i64, i64, ptr, ...) @H5E_printf_stack(ptr noundef nonnull @.str.2, ptr noundef nonnull @__func__.H5VL_wrap_register, i32 noundef 2406, i64 noundef %20, i64 noundef %21, ptr noundef nonnull @.str.90) #10
  br label %74

23:                                               ; preds = %15
  %24 = icmp eq i32 %0, 3
  br i1 %24, label %25, label %36

25:                                               ; preds = %23
  %26 = getelementptr inbounds i8, ptr %17, i64 16
  %27 = load i64, ptr %26, align 8
  %28 = call i64 @H5VL_native_register() #10
  %29 = icmp eq i64 %27, %28
  br i1 %29, label %30, label %36

30:                                               ; preds = %25
  %31 = call zeroext i1 @H5T_already_vol_managed(ptr noundef %1) #10
  br i1 %31, label %32, label %36

32:                                               ; preds = %30
  %33 = load i64, ptr @H5E_VOL_g, align 8
  %34 = load i64, ptr @H5E_BADTYPE_g, align 8
  %35 = call i32 (ptr, ptr, i32, i64, i64, ptr, ...) @H5E_printf_stack(ptr noundef nonnull @.str.2, ptr noundef nonnull @__func__.H5VL_wrap_register, i32 noundef 2414, i64 noundef %33, i64 noundef %34, ptr noundef nonnull @.str.91) #10
  br label %74

36:                                               ; preds = %25, %30, %23
  call void @llvm.lifetime.start.p0(i64 8, ptr nonnull %4)
  store ptr null, ptr %4, align 8
  %37 = call i32 @H5CX_get_vol_wrap_ctx(ptr noundef nonnull %4) #10
  %38 = icmp slt i32 %37, 0
  br i1 %38, label %39, label %43

39:                                               ; preds = %36
  %40 = load i64, ptr @H5E_VOL_g, align 8
  %41 = load i64, ptr @H5E_CANTGET_g, align 8
  %42 = call i32 (ptr, ptr, i32, i64, i64, ptr, ...) @H5E_printf_stack(ptr noundef nonnull @.str.2, ptr noundef nonnull @__func__.H5VL__wrap_obj, i32 noundef 499, i64 noundef %40, i64 noundef %41, ptr noundef nonnull @.str.83) #10
  br label %H5VL__wrap_obj.exit.thread

43:                                               ; preds = %36
  %44 = load ptr, ptr %4, align 8
  %.not.i = icmp eq ptr %44, null
  br i1 %.not.i, label %H5VL__wrap_obj.exit, label %45

45:                                               ; preds = %43
  %46 = getelementptr inbounds i8, ptr %44, i64 8
  %47 = load ptr, ptr %46, align 8
  %48 = load ptr, ptr %47, align 8
  %49 = getelementptr inbounds i8, ptr %44, i64 16
  %50 = load ptr, ptr %49, align 8
  %51 = call ptr @H5VL_wrap_object(ptr noundef %48, ptr noundef %50, ptr noundef %1, i32 noundef %0) #10
  %52 = icmp eq ptr %51, null
  br i1 %52, label %53, label %H5VL__wrap_obj.exit.thread17

H5VL__wrap_obj.exit.thread17:                     ; preds = %45
  call void @llvm.lifetime.end.p0(i64 8, ptr nonnull %4)
  br label %62

53:                                               ; preds = %45
  %54 = load i64, ptr @H5E_VOL_g, align 8
  %55 = load i64, ptr @H5E_CANTGET_g, align 8
  %56 = call i32 (ptr, ptr, i32, i64, i64, ptr, ...) @H5E_printf_stack(ptr noundef nonnull @.str.2, ptr noundef nonnull @__func__.H5VL__wrap_obj, i32 noundef 506, i64 noundef %54, i64 noundef %55, ptr noundef nonnull @.str.110) #10
  br label %H5VL__wrap_obj.exit.thread

H5VL__wrap_obj.exit.thread:                       ; preds = %39, %53
  call void @llvm.lifetime.end.p0(i64 8, ptr nonnull %4)
  br label %58

H5VL__wrap_obj.exit:                              ; preds = %43
  call void @llvm.lifetime.end.p0(i64 8, ptr nonnull %4)
  %57 = icmp eq ptr %1, null
  br i1 %57, label %58, label %62

58:                                               ; preds = %H5VL__wrap_obj.exit.thread, %H5VL__wrap_obj.exit
  %59 = load i64, ptr @H5E_VOL_g, align 8
  %60 = load i64, ptr @H5E_CANTCREATE_g, align 8
  %61 = call i32 (ptr, ptr, i32, i64, i64, ptr, ...) @H5E_printf_stack(ptr noundef nonnull @.str.2, ptr noundef nonnull @__func__.H5VL_wrap_register, i32 noundef 2418, i64 noundef %59, i64 noundef %60, ptr noundef nonnull @.str.92) #10
  br label %74

62:                                               ; preds = %H5VL__wrap_obj.exit.thread17, %H5VL__wrap_obj.exit
  %.0.i19 = phi ptr [ %51, %H5VL__wrap_obj.exit.thread17 ], [ %1, %H5VL__wrap_obj.exit ]
  %63 = load ptr, ptr %5, align 8
  %64 = getelementptr inbounds i8, ptr %63, i64 8
  %65 = load ptr, ptr %64, align 8
  %66 = getelementptr inbounds i8, ptr %65, i64 16
  %67 = load i64, ptr %66, align 8
  %68 = call i64 @H5VL_register_using_vol_id(i32 noundef %0, ptr noundef nonnull %.0.i19, i64 noundef %67, i1 noundef zeroext %2)
  %69 = icmp slt i64 %68, 0
  br i1 %69, label %70, label %74

70:                                               ; preds = %62
  %71 = load i64, ptr @H5E_VOL_g, align 8
  %72 = load i64, ptr @H5E_CANTREGISTER_g, align 8
  %73 = call i32 (ptr, ptr, i32, i64, i64, ptr, ...) @H5E_printf_stack(ptr noundef nonnull @.str.2, ptr noundef nonnull @__func__.H5VL_wrap_register, i32 noundef 2422, i64 noundef %71, i64 noundef %72, ptr noundef nonnull @.str.93) #10
  br label %74

74:                                               ; preds = %62, %70, %58, %32, %19, %8
  %.0 = phi i64 [ -1, %8 ], [ -1, %19 ], [ -1, %32 ], [ -1, %58 ], [ -1, %70 ], [ %68, %62 ]
  ret i64 %.0
}